target datalayout = "e-m:e-p270:32:32-p271:32:32-p272:64:64-i64:64-i128:128-f80:128-n8:16:32:64-S128"
target triple = "x86_64-pc-linux-gnu"

%struct.list_type = type { i32, i32, i32, i32, i32 }
%struct.ddTableResults = type { [5 x [4 x i32]] }

@DENOM_ORDER = global [5 x i32] [i32 3, i32 2, i32 1, i32 0, i32 4], align 16

; Function Attrs: mustprogress nounwind uwtable
define void @_Z14best_sacrificeRK14ddTableResultsiiiiPA5_K9list_typePA5_iRi(ptr noundef nonnull align 4 dereferenceable(80) %0, i32 noundef %1, i32 noundef %2, i32 noundef %3, i32 noundef %4, ptr noundef %5, ptr noundef %6, ptr noundef nonnull align 4 dereferenceable(4) %7) #3 {
  %9 = alloca ptr, align 8
  %10 = alloca i32, align 4
  %11 = alloca i32, align 4
  %12 = alloca i32, align 4
  %13 = alloca i32, align 4
  %14 = alloca ptr, align 8
  %15 = alloca ptr, align 8
  %16 = alloca ptr, align 8
  %17 = alloca i32, align 4
  %18 = alloca ptr, align 8
  %19 = alloca i32, align 4
  %20 = alloca %struct.list_type, align 4
  %21 = alloca i32, align 4
  %22 = alloca i32, align 4
  %23 = alloca ptr, align 8
  %24 = alloca i32, align 4
  %25 = alloca i32, align 4
  %26 = alloca i32, align 4
  %27 = alloca i32, align 4
  %28 = alloca i32, align 4
  store ptr %0, ptr %9, align 8
  store i32 %1, ptr %10, align 4
  store i32 %2, ptr %11, align 4
  store i32 %3, ptr %12, align 4
  store i32 %4, ptr %13, align 4
  store ptr %5, ptr %14, align 8
  store ptr %6, ptr %15, align 8
  store ptr %7, ptr %16, align 8
  %29 = load i32, ptr %10, align 4
  %30 = sub nsw i32 1, %29
  store i32 %30, ptr %17, align 4
  %31 = load ptr, ptr %14, align 8
  %32 = load i32, ptr %17, align 4
  %33 = sext i32 %32 to i64
  %34 = getelementptr inbounds [5 x %struct.list_type], ptr %31, i64 %33
  %35 = getelementptr inbounds [5 x %struct.list_type], ptr %34, i64 0, i64 0
  store ptr %35, ptr %18, align 8
  %36 = load ptr, ptr %16, align 8
  store i32 9999, ptr %36, align 4
  store i32 0, ptr %19, align 4
  br label %37

37:                                               ; preds = %141, %8
  %38 = load i32, ptr %19, align 4
  %39 = icmp sle i32 %38, 4
  br i1 %39, label %40, label %144

40:                                               ; preds = %37
  %41 = load ptr, ptr %18, align 8
  %42 = load i32, ptr %19, align 4
  %43 = sext i32 %42 to i64
  %44 = getelementptr inbounds %struct.list_type, ptr %41, i64 %43
  call void @llvm.memcpy.p0.p0.i64(ptr align 4 %20, ptr align 4 %44, i64 20, i1 false)
  store i32 9999, ptr %21, align 4
  %45 = load i32, ptr %19, align 4
  %46 = load i32, ptr %12, align 4
  %47 = icmp eq i32 %45, %46
  br i1 %47, label %48, label %109

48:                                               ; preds = %40
  %49 = load i32, ptr %11, align 4
  %50 = add nsw i32 %49, 34
  %51 = sdiv i32 %50, 5
  store i32 %51, ptr %22, align 4
  %52 = load ptr, ptr %9, align 8
  %53 = getelementptr inbounds nuw %struct.ddTableResults, ptr %52, i32 0, i32 0
  %54 = load i32, ptr %12, align 4
  %55 = sext i32 %54 to i64
  %56 = getelementptr inbounds [5 x i32], ptr @DENOM_ORDER, i64 0, i64 %55
  %57 = load i32, ptr %56, align 4
  %58 = sext i32 %57 to i64
  %59 = getelementptr inbounds [5 x [4 x i32]], ptr %53, i64 0, i64 %58
  %60 = getelementptr inbounds [4 x i32], ptr %59, i64 0, i64 0
  store ptr %60, ptr %23, align 8
  store i32 0, ptr %24, align 4
  %61 = load i32, ptr %13, align 4
  store i32 %61, ptr %25, align 4
  br label %62

62:                                               ; preds = %97, %48
  %63 = load i32, ptr %25, align 4
  %64 = load i32, ptr %13, align 4
  %65 = add nsw i32 %64, 3
  %66 = icmp sle i32 %63, %65
  br i1 %66, label %67, label %100

67:                                               ; preds = %62
  %68 = load i32, ptr %22, align 4
  %69 = load ptr, ptr %23, align 8
  %70 = load i32, ptr %25, align 4
  %71 = srem i32 %70, 4
  %72 = sext i32 %71 to i64
  %73 = getelementptr inbounds i32, ptr %69, i64 %72
  %74 = load i32, ptr %73, align 4
  %75 = sub nsw i32 %68, %74
  store i32 %75, ptr %26, align 4
  %76 = load i32, ptr %25, align 4
  %77 = srem i32 %76, 2
  store i32 %77, ptr %27, align 4
  %78 = load i32, ptr %27, align 4
  %79 = load i32, ptr %10, align 4
  %80 = icmp eq i32 %78, %79
  br i1 %80, label %81, label %86

81:                                               ; preds = %67
  %82 = load i32, ptr %26, align 4
  %83 = icmp eq i32 %82, 0
  br i1 %83, label %84, label %85

84:                                               ; preds = %81
  store i32 1, ptr %24, align 4
  br label %85

85:                                               ; preds = %84, %81
  br label %96

86:                                               ; preds = %67
  %87 = load i32, ptr %26, align 4
  %88 = load i32, ptr %24, align 4
  %89 = add nsw i32 %87, %88
  store i32 %89, ptr %28, align 4
  %90 = load i32, ptr %28, align 4
  %91 = load i32, ptr %21, align 4
  %92 = icmp slt i32 %90, %91
  br i1 %92, label %93, label %95

93:                                               ; preds = %86
  %94 = load i32, ptr %28, align 4
  store i32 %94, ptr %21, align 4
  br label %95

95:                                               ; preds = %93, %86
  br label %96

96:                                               ; preds = %95, %85
  br label %97

97:                                               ; preds = %96
  %98 = load i32, ptr %25, align 4
  %99 = add nsw i32 %98, 1
  store i32 %99, ptr %25, align 4
  br label %62, !llvm.loop !14

100:                                              ; preds = %62
  %101 = getelementptr inbounds nuw %struct.list_type, ptr %20, i32 0, i32 2
  %102 = load i32, ptr %101, align 4
  %103 = load i32, ptr %21, align 4
  %104 = mul nsw i32 5, %103
  %105 = add nsw i32 %102, %104
  %106 = icmp sgt i32 %105, 35
  br i1 %106, label %107, label %108

107:                                              ; preds = %100
  store i32 9999, ptr %21, align 4
  br label %108

108:                                              ; preds = %107, %100
  br label %124

109:                                              ; preds = %40
  %110 = load i32, ptr %11, align 4
  %111 = getelementptr inbounds nuw %struct.list_type, ptr %20, i32 0, i32 2
  %112 = load i32, ptr %111, align 4
  %113 = sub nsw i32 %110, %112
  %114 = add nsw i32 %113, 4
  %115 = sdiv i32 %114, 5
  store i32 %115, ptr %21, align 4
  %116 = getelementptr inbounds nuw %struct.list_type, ptr %20, i32 0, i32 2
  %117 = load i32, ptr %116, align 4
  %118 = load i32, ptr %21, align 4
  %119 = mul nsw i32 5, %118
  %120 = add nsw i32 %117, %119
  %121 = icmp sgt i32 %120, 35
  br i1 %121, label %122, label %123

122:                                              ; preds = %109
  store i32 9999, ptr %21, align 4
  br label %123

123:                                              ; preds = %122, %109
  br label %124

124:                                              ; preds = %123, %108
  %125 = load i32, ptr %21, align 4
  %126 = load ptr, ptr %15, align 8
  %127 = load i32, ptr %12, align 4
  %128 = sext i32 %127 to i64
  %129 = getelementptr inbounds [5 x i32], ptr %126, i64 %128
  %130 = load i32, ptr %19, align 4
  %131 = sext i32 %130 to i64
  %132 = getelementptr inbounds [5 x i32], ptr %129, i64 0, i64 %131
  store i32 %125, ptr %132, align 4
  %133 = load i32, ptr %21, align 4
  %134 = load ptr, ptr %16, align 8
  %135 = load i32, ptr %134, align 4
  %136 = icmp slt i32 %133, %135
  br i1 %136, label %137, label %140

137:                                              ; preds = %124
  %138 = load i32, ptr %21, align 4
  %139 = load ptr, ptr %16, align 8
  store i32 %138, ptr %139, align 4
  br label %140

140:                                              ; preds = %137, %124
  br label %141

141:                                              ; preds = %140
  %142 = load i32, ptr %19, align 4
  %143 = add nsw i32 %142, 1
  store i32 %143, ptr %19, align 4
  br label %37, !llvm.loop !15

144:                                              ; preds = %37
  ret void
}