; Function Attrs: mustprogress nofree norecurse nosync nounwind memory(read, argmem: readwrite, inaccessiblemem: none) uwtable
define void @_Z14best_sacrificeRK14ddTableResultsiiiiPA5_K9list_typePA5_iRi(ptr noundef nonnull readonly align 4 captures(none) dereferenceable(80) %0, i32 noundef %1, i32 noundef %2, i32 noundef %3, i32 noundef %4, ptr noundef readonly captures(none) %5, ptr noundef writeonly captures(none) %6, ptr noundef nonnull align 4 captures(none) dereferenceable(4) initializes((0, 4)) %7) local_unnamed_addr #4 {
  %9 = sub nsw i32 1, %1
  %10 = sext i32 %9 to i64
  %11 = getelementptr inbounds [5 x %struct.list_type], ptr %5, i64 %10
  store i32 9999, ptr %7, align 4
  %12 = sext i32 %3 to i64
  %13 = add i32 %2, 4
  %14 = add nsw i32 %2, 34
  %15 = sdiv i32 %14, 5
  %16 = zext i32 %3 to i64
  %17 = getelementptr inbounds nuw [5 x i32], ptr @DENOM_ORDER, i64 0, i64 %16
  %18 = add i32 %4, 3
  %smax = tail call i32 @llvm.smax.i32(i32 %4, i32 %18)
  br label %19

19:                                               ; preds = %8, %49
  %indvars.iv = phi i64 [ 0, %8 ], [ %indvars.iv.next, %49 ]
  %.sroa.1.0..sroa_idx = getelementptr inbounds nuw %struct.list_type, ptr %11, i64 %indvars.iv, i32 2
  %.sroa.1.0.copyload = load i32, ptr %.sroa.1.0..sroa_idx, align 4
  %20 = icmp eq i64 %indvars.iv, %16
  br i1 %20, label %21, label %39

21:                                               ; preds = %19
  %22 = load i32, ptr %17, align 4
  %23 = sext i32 %22 to i64
  %24 = getelementptr inbounds [5 x [4 x i32]], ptr %0, i64 0, i64 %23
  br label %25

25:                                               ; preds = %21, %37
  %.04251 = phi i32 [ 9999, %21 ], [ %.1, %37 ]
  %.04350 = phi i32 [ 0, %21 ], [ %.144, %37 ]
  %.04549 = phi i32 [ %4, %21 ], [ %38, %37 ]
  %26 = srem i32 %.04549, 4
  %27 = sext i32 %26 to i64
  %28 = getelementptr inbounds i32, ptr %24, i64 %27
  %29 = load i32, ptr %28, align 4
  %30 = srem i32 %.04549, 2
  %31 = icmp eq i32 %30, %1
  br i1 %31, label %32, label %34

32:                                               ; preds = %25
  %33 = icmp eq i32 %15, %29
  %spec.select = select i1 %33, i32 1, i32 %.04350
  br label %37

34:                                               ; preds = %25
  %35 = add nsw i32 %.04350, %15
  %36 = sub i32 %35, %29
  %spec.select48 = tail call i32 @llvm.smin.i32(i32 %36, i32 %.04251)
  br label %37

37:                                               ; preds = %34, %32
  %.144 = phi i32 [ %spec.select, %32 ], [ %.04350, %34 ]
  %.1 = phi i32 [ %.04251, %32 ], [ %spec.select48, %34 ]
  %38 = add i32 %.04549, 1
  %exitcond.not = icmp eq i32 %.04549, %smax
  br i1 %exitcond.not, label %.loopexit, label %25, !llvm.loop !6

39:                                               ; preds = %19
  %40 = sub i32 %13, %.sroa.1.0.copyload
  %41 = sdiv i32 %40, 5
  br label %.loopexit

.loopexit:                                        ; preds = %37, %39
  %.sink57 = phi i32 [ %41, %39 ], [ %.1, %37 ]
  %42 = mul nsw i32 %.sink57, 5
  %43 = add nsw i32 %42, %.sroa.1.0.copyload
  %44 = icmp sgt i32 %43, 35
  %spec.store.select1 = select i1 %44, i32 9999, i32 %.sink57
  %45 = getelementptr inbounds [5 x i32], ptr %6, i64 %12, i64 %indvars.iv
  store i32 %spec.store.select1, ptr %45, align 4
  %46 = load i32, ptr %7, align 4
  %47 = icmp slt i32 %spec.store.select1, %46
  br i1 %47, label %48, label %49

48:                                               ; preds = %.loopexit
  store i32 %spec.store.select1, ptr %7, align 4
  br label %49

49:                                               ; preds = %.loopexit, %48
  %indvars.iv.next = add nuw nsw i64 %indvars.iv, 1
  %exitcond54.not = icmp eq i64 %indvars.iv.next, 5
  br i1 %exitcond54.not, label %50, label %19, !llvm.loop !7

50:                                               ; preds = %49
  ret void
}